ARM GAS  C:\Users\Dias\AppData\Local\Temp\cchyDp4f.s 			page 1


   1              		.syntax unified
   2              		.cpu cortex-m3
   3              		.fpu softvfp
   4              		.eabi_attribute 20, 1
   5              		.eabi_attribute 21, 1
   6              		.eabi_attribute 23, 3
   7              		.eabi_attribute 24, 1
   8              		.eabi_attribute 25, 1
   9              		.eabi_attribute 26, 1
  10              		.eabi_attribute 30, 1
  11              		.eabi_attribute 34, 1
  12              		.eabi_attribute 18, 4
  13              		.thumb
  14              		.syntax unified
  15              		.file	"serial.c"
  16              		.text
  17              	.Ltext0:
  18              		.cfi_sections	.debug_frame
  19              		.section	.text.serial_parseCommand,"ax",%progbits
  20              		.align	2
  21              		.global	serial_parseCommand
  22              		.thumb
  23              		.thumb_func
  24              		.type	serial_parseCommand, %function
  25              	serial_parseCommand:
  26              	.LFB65:
  27              		.file 1 "serial.c"
   1:serial.c      **** /* ========================================
   2:serial.c      ****  * Code for parsing strings from UART into commands
   3:serial.c      ****  * ========================================
   4:serial.c      **** */
   5:serial.c      **** 
   6:serial.c      **** #include "serial.h"
   7:serial.c      **** 
   8:serial.c      **** 
   9:serial.c      **** /*Line for each command, needs to be in the same order as enum eCommand in serial.h!*/
  10:serial.c      **** const char* cmd_str []= {
  11:serial.c      ****   "", "S", "I", "CV","LSV","CA","CALI","RG",
  12:serial.c      **** };
  13:serial.c      **** 
  14:serial.c      **** int cmd=NONE;
  15:serial.c      **** int cmd_last=NONE;
  16:serial.c      **** int cmd_params[PARAM_MAX];
  17:serial.c      **** int cmd_nparam=0;
  18:serial.c      **** int cmd_error = 0;
  19:serial.c      **** 
  20:serial.c      **** const char cmd_end =  '\r';
  21:serial.c      **** const char cmd_separators[] = " ,;=";
  22:serial.c      **** 
  23:serial.c      **** 
  24:serial.c      **** /* ========================================
  25:serial.c      ****  * Operation: serial_parseLine
  26:serial.c      ****  * Description: Parse a string into the command and parameter variables
  27:serial.c      ****  * Input: char *s_cmd - char array of serial input like "CV 100 200"
  28:serial.c      ****  * Output: 
  29:serial.c      ****  *    return true/false - false if operation error
  30:serial.c      ****  *    int cmd - number that points what command is called according to cmd_str
ARM GAS  C:\Users\Dias\AppData\Local\Temp\cchyDp4f.s 			page 2


  31:serial.c      ****  *    int cmd_params[] - array of value from the command 
  32:serial.c      ****  * ========================================
  33:serial.c      **** */
  34:serial.c      **** uint8_t serial_parseLine(char *s_cmd) {
  35:serial.c      ****     memset(cmd_params, 0, PARAM_MAX);
  36:serial.c      ****     char* token;
  37:serial.c      ****     token = strtok(s_cmd,cmd_separators);
  38:serial.c      ****     
  39:serial.c      ****     if (token == NULL) {
  40:serial.c      ****         cmd_error = 1;
  41:serial.c      ****         return 0; //false
  42:serial.c      ****     }
  43:serial.c      ****     if (!serial_parseCommand(token)) {
  44:serial.c      ****         cmd_error = 2;
  45:serial.c      ****         return 0; //false    
  46:serial.c      ****     }
  47:serial.c      ****     for (int i=0; i<PARAM_MAX; i++) {
  48:serial.c      ****         token = strtok(NULL,cmd_separators);
  49:serial.c      ****         if (token == NULL) break;
  50:serial.c      ****         cmd_params[i] = atol(token); 
  51:serial.c      ****     }
  52:serial.c      ****     cmd_error = 0;
  53:serial.c      ****     return 1; //true
  54:serial.c      **** }
  55:serial.c      **** /* function to compare the input char* with the list of valid commands in cmd_str */
  56:serial.c      **** int serial_parseCommand(char *line) {
  28              		.loc 1 56 0
  29              		.cfi_startproc
  30              		@ args = 0, pretend = 0, frame = 0
  31              		@ frame_needed = 0, uses_anonymous_args = 0
  32              	.LVL0:
  33 0000 38B5     		push	{r3, r4, r5, lr}
  34              		.cfi_def_cfa_offset 16
  35              		.cfi_offset 3, -16
  36              		.cfi_offset 4, -12
  37              		.cfi_offset 5, -8
  38              		.cfi_offset 14, -4
  39 0002 0546     		mov	r5, r0
  40              	.LVL1:
  41              	.LBB2:
  57:serial.c      ****     for (int i=0; i<CMD_MAX; i++) {
  42              		.loc 1 57 0
  43 0004 0024     		movs	r4, #0
  44 0006 0BE0     		b	.L2
  45              	.LVL2:
  46              	.L5:
  58:serial.c      ****         if (strcmp(line, cmd_str[i]) == 0) {
  47              		.loc 1 58 0
  48 0008 074B     		ldr	r3, .L7
  49 000a 53F82410 		ldr	r1, [r3, r4, lsl #2]
  50 000e 2846     		mov	r0, r5
  51 0010 FFF7FEFF 		bl	strcmp
  52              	.LVL3:
  53 0014 18B9     		cbnz	r0, .L3
  59:serial.c      ****             cmd = i;
  54              		.loc 1 59 0
  55 0016 054B     		ldr	r3, .L7+4
ARM GAS  C:\Users\Dias\AppData\Local\Temp\cchyDp4f.s 			page 3


  56 0018 1C60     		str	r4, [r3]
  60:serial.c      ****             return 1; //true
  57              		.loc 1 60 0
  58 001a 0120     		movs	r0, #1
  59 001c 38BD     		pop	{r3, r4, r5, pc}
  60              	.LVL4:
  61              	.L3:
  57:serial.c      ****         if (strcmp(line, cmd_str[i]) == 0) {
  62              		.loc 1 57 0 discriminator 2
  63 001e 0134     		adds	r4, r4, #1
  64              	.LVL5:
  65              	.L2:
  57:serial.c      ****         if (strcmp(line, cmd_str[i]) == 0) {
  66              		.loc 1 57 0 is_stmt 0 discriminator 1
  67 0020 072C     		cmp	r4, #7
  68 0022 F1DD     		ble	.L5
  69              	.LBE2:
  61:serial.c      ****         }
  62:serial.c      ****     }
  63:serial.c      ****     return 0; //false  
  70              		.loc 1 63 0 is_stmt 1
  71 0024 0020     		movs	r0, #0
  64:serial.c      **** }
  72              		.loc 1 64 0
  73 0026 38BD     		pop	{r3, r4, r5, pc}
  74              	.LVL6:
  75              	.L8:
  76              		.align	2
  77              	.L7:
  78 0028 00000000 		.word	.LANCHOR0
  79 002c 00000000 		.word	.LANCHOR1
  80              		.cfi_endproc
  81              	.LFE65:
  82              		.size	serial_parseCommand, .-serial_parseCommand
  83              		.section	.text.serial_parseLine,"ax",%progbits
  84              		.align	2
  85              		.global	serial_parseLine
  86              		.thumb
  87              		.thumb_func
  88              		.type	serial_parseLine, %function
  89              	serial_parseLine:
  90              	.LFB64:
  34:serial.c      ****     memset(cmd_params, 0, PARAM_MAX);
  91              		.loc 1 34 0
  92              		.cfi_startproc
  93              		@ args = 0, pretend = 0, frame = 0
  94              		@ frame_needed = 0, uses_anonymous_args = 0
  95              	.LVL7:
  96 0000 10B5     		push	{r4, lr}
  97              		.cfi_def_cfa_offset 8
  98              		.cfi_offset 4, -8
  99              		.cfi_offset 14, -4
  35:serial.c      ****     char* token;
 100              		.loc 1 35 0
 101 0002 134B     		ldr	r3, .L17
 102 0004 0022     		movs	r2, #0
 103 0006 1A60     		str	r2, [r3]
ARM GAS  C:\Users\Dias\AppData\Local\Temp\cchyDp4f.s 			page 4


 104 0008 1A71     		strb	r2, [r3, #4]
  37:serial.c      ****     
 105              		.loc 1 37 0
 106 000a 1249     		ldr	r1, .L17+4
 107 000c FFF7FEFF 		bl	strtok
 108              	.LVL8:
  39:serial.c      ****         cmd_error = 1;
 109              		.loc 1 39 0
 110 0010 18B9     		cbnz	r0, .L10
  40:serial.c      ****         return 0; //false
 111              		.loc 1 40 0
 112 0012 0122     		movs	r2, #1
 113 0014 104B     		ldr	r3, .L17+8
 114 0016 5A60     		str	r2, [r3, #4]
  41:serial.c      ****     }
 115              		.loc 1 41 0
 116 0018 10BD     		pop	{r4, pc}
 117              	.L10:
  43:serial.c      ****         cmd_error = 2;
 118              		.loc 1 43 0
 119 001a FFF7FEFF 		bl	serial_parseCommand
 120              	.LVL9:
 121 001e 78B9     		cbnz	r0, .L15
  44:serial.c      ****         return 0; //false    
 122              		.loc 1 44 0
 123 0020 0222     		movs	r2, #2
 124 0022 0D4B     		ldr	r3, .L17+8
 125 0024 5A60     		str	r2, [r3, #4]
  45:serial.c      ****     }
 126              		.loc 1 45 0
 127 0026 10BD     		pop	{r4, pc}
 128              	.LVL10:
 129              	.L14:
 130              	.LBB3:
  48:serial.c      ****         if (token == NULL) break;
 131              		.loc 1 48 0
 132 0028 0A49     		ldr	r1, .L17+4
 133 002a 0020     		movs	r0, #0
 134 002c FFF7FEFF 		bl	strtok
 135              	.LVL11:
  49:serial.c      ****         cmd_params[i] = atol(token); 
 136              		.loc 1 49 0
 137 0030 48B1     		cbz	r0, .L13
  50:serial.c      ****     }
 138              		.loc 1 50 0 discriminator 2
 139 0032 FFF7FEFF 		bl	atol
 140              	.LVL12:
 141 0036 064B     		ldr	r3, .L17
 142 0038 43F82400 		str	r0, [r3, r4, lsl #2]
  47:serial.c      ****         token = strtok(NULL,cmd_separators);
 143              		.loc 1 47 0 discriminator 2
 144 003c 0134     		adds	r4, r4, #1
 145              	.LVL13:
 146 003e 00E0     		b	.L12
 147              	.LVL14:
 148              	.L15:
 149              	.LBE3:
ARM GAS  C:\Users\Dias\AppData\Local\Temp\cchyDp4f.s 			page 5


 150 0040 0024     		movs	r4, #0
 151              	.L12:
 152              	.LVL15:
 153              	.LBB4:
  47:serial.c      ****         token = strtok(NULL,cmd_separators);
 154              		.loc 1 47 0 is_stmt 0 discriminator 1
 155 0042 042C     		cmp	r4, #4
 156 0044 F0DD     		ble	.L14
 157              	.L13:
 158              	.LBE4:
  52:serial.c      ****     return 1; //true
 159              		.loc 1 52 0 is_stmt 1
 160 0046 0022     		movs	r2, #0
 161 0048 034B     		ldr	r3, .L17+8
 162 004a 5A60     		str	r2, [r3, #4]
  53:serial.c      **** }
 163              		.loc 1 53 0
 164 004c 0120     		movs	r0, #1
  54:serial.c      **** /* function to compare the input char* with the list of valid commands in cmd_str */
 165              		.loc 1 54 0
 166 004e 10BD     		pop	{r4, pc}
 167              	.LVL16:
 168              	.L18:
 169              		.align	2
 170              	.L17:
 171 0050 00000000 		.word	cmd_params
 172 0054 00000000 		.word	.LANCHOR2
 173 0058 00000000 		.word	.LANCHOR1
 174              		.cfi_endproc
 175              	.LFE64:
 176              		.size	serial_parseLine, .-serial_parseLine
 177              		.section	.text.serial_checkInput,"ax",%progbits
 178              		.align	2
 179              		.global	serial_checkInput
 180              		.thumb
 181              		.thumb_func
 182              		.type	serial_checkInput, %function
 183              	serial_checkInput:
 184              	.LFB66:
  65:serial.c      **** 
  66:serial.c      **** /* ========================================
  67:serial.c      ****  * Operation: serial_checkInput
  68:serial.c      ****  * Description: reads UART input and holds it inside a buffer until a delimiter is readed
  69:serial.c      ****  * input: char* buffer - char array to store the serial input line
  70:serial.c      ****  * output:
  71:serial.c      ****  *      return true/false - return true after a input is complete (delimiter met)
  72:serial.c      ****  *      char* buffer - the array is filled with the input line 
  73:serial.c      ****  * ========================================
  74:serial.c      **** */
  75:serial.c      **** uint8_t serial_checkInput(char *buffer) {
 185              		.loc 1 75 0
 186              		.cfi_startproc
 187              		@ args = 0, pretend = 0, frame = 0
 188              		@ frame_needed = 0, uses_anonymous_args = 0
 189              	.LVL17:
 190 0000 10B5     		push	{r4, lr}
 191              		.cfi_def_cfa_offset 8
ARM GAS  C:\Users\Dias\AppData\Local\Temp\cchyDp4f.s 			page 6


 192              		.cfi_offset 4, -8
 193              		.cfi_offset 14, -4
 194 0002 0446     		mov	r4, r0
  76:serial.c      ****     uint8_t c;
  77:serial.c      ****     static uint8_t i=0;
  78:serial.c      ****     if(UART_GetRxBufferSize()){ //if UART input available
 195              		.loc 1 78 0
 196 0004 FFF7FEFF 		bl	UART_GetRxBufferSize
 197              	.LVL18:
 198 0008 0346     		mov	r3, r0
 199 000a 30B3     		cbz	r0, .L20
  79:serial.c      ****         c = UART_GetByte(); //Read 1 char first
 200              		.loc 1 79 0
 201 000c FFF7FEFF 		bl	UART_GetByte
 202              	.LVL19:
 203 0010 C0B2     		uxtb	r0, r0
 204              	.LVL20:
  80:serial.c      ****         //UART_PutChar(c); //echo the char
  81:serial.c      ****         if(c=='\b'){//if backspace
 205              		.loc 1 81 0
 206 0012 0828     		cmp	r0, #8
 207 0014 07D1     		bne	.L21
  82:serial.c      ****             buffer[i] = ' ';
 208              		.loc 1 82 0
 209 0016 124A     		ldr	r2, .L26
 210 0018 137A     		ldrb	r3, [r2, #8]	@ zero_extendqisi2
 211 001a 2021     		movs	r1, #32
 212 001c E154     		strb	r1, [r4, r3]
  83:serial.c      ****             i--;
 213              		.loc 1 83 0
 214 001e 013B     		subs	r3, r3, #1
 215 0020 1372     		strb	r3, [r2, #8]
  84:serial.c      ****             return 0;
 216              		.loc 1 84 0
 217 0022 0023     		movs	r3, #0
 218 0024 19E0     		b	.L20
 219              	.L21:
  85:serial.c      ****         } else if(c=='\r' || c=='\n'){ //if found delimiter, input available
 220              		.loc 1 85 0
 221 0026 0D28     		cmp	r0, #13
 222 0028 01D0     		beq	.L22
 223              		.loc 1 85 0 is_stmt 0 discriminator 1
 224 002a 0A28     		cmp	r0, #10
 225 002c 07D1     		bne	.L23
 226              	.L22:
  86:serial.c      ****             i =0;
 227              		.loc 1 86 0 is_stmt 1
 228 002e 0022     		movs	r2, #0
 229 0030 0B4B     		ldr	r3, .L26
 230 0032 1A72     		strb	r2, [r3, #8]
  87:serial.c      ****             UART_PutString("\r\n");
 231              		.loc 1 87 0
 232 0034 0B48     		ldr	r0, .L26+4
 233              	.LVL21:
 234 0036 FFF7FEFF 		bl	UART_PutString
 235              	.LVL22:
  88:serial.c      ****             return 1;
ARM GAS  C:\Users\Dias\AppData\Local\Temp\cchyDp4f.s 			page 7


 236              		.loc 1 88 0
 237 003a 0123     		movs	r3, #1
 238 003c 0DE0     		b	.L20
 239              	.LVL23:
 240              	.L23:
  89:serial.c      ****         } else if(i >= RX_BUFFER_SIZE){ //if maximum output, input available
 241              		.loc 1 89 0
 242 003e 084B     		ldr	r3, .L26
 243 0040 1B7A     		ldrb	r3, [r3, #8]	@ zero_extendqisi2
 244 0042 1F2B     		cmp	r3, #31
 245 0044 04D9     		bls	.L24
  90:serial.c      ****             i = 0;
 246              		.loc 1 90 0
 247 0046 0022     		movs	r2, #0
 248 0048 054B     		ldr	r3, .L26
 249 004a 1A72     		strb	r2, [r3, #8]
  91:serial.c      ****             return 1;
 250              		.loc 1 91 0
 251 004c 0123     		movs	r3, #1
 252 004e 04E0     		b	.L20
 253              	.L24:
  92:serial.c      ****         } else{ //if no delimiter, hold input
  93:serial.c      ****             buffer[i] = c;
 254              		.loc 1 93 0
 255 0050 E054     		strb	r0, [r4, r3]
  94:serial.c      ****             i++;
 256              		.loc 1 94 0
 257 0052 0133     		adds	r3, r3, #1
 258 0054 024A     		ldr	r2, .L26
 259 0056 1372     		strb	r3, [r2, #8]
  95:serial.c      ****             return 0;
 260              		.loc 1 95 0
 261 0058 0023     		movs	r3, #0
 262              	.LVL24:
 263              	.L20:
  96:serial.c      ****         }
  97:serial.c      ****     }
  98:serial.c      ****     return 0;
  99:serial.c      **** }
 264              		.loc 1 99 0
 265 005a 1846     		mov	r0, r3
 266 005c 10BD     		pop	{r4, pc}
 267              	.LVL25:
 268              	.L27:
 269 005e 00BF     		.align	2
 270              	.L26:
 271 0060 00000000 		.word	.LANCHOR1
 272 0064 00000000 		.word	.LC0
 273              		.cfi_endproc
 274              	.LFE66:
 275              		.size	serial_checkInput, .-serial_checkInput
 276              		.global	cmd_separators
 277              		.global	cmd_end
 278              		.global	cmd_error
 279              		.global	cmd_nparam
 280              		.comm	cmd_params,20,4
 281              		.global	cmd_last
ARM GAS  C:\Users\Dias\AppData\Local\Temp\cchyDp4f.s 			page 8


 282              		.global	cmd
 283              		.global	cmd_str
 284              		.section	.rodata
 285              		.align	2
 286              		.set	.LANCHOR2,. + 0
 287              		.type	cmd_separators, %object
 288              		.size	cmd_separators, 5
 289              	cmd_separators:
 290 0000 202C3B3D 		.ascii	" ,;=\000"
 290      00
 291              		.type	cmd_end, %object
 292              		.size	cmd_end, 1
 293              	cmd_end:
 294 0005 0D       		.byte	13
 295              		.data
 296              		.align	2
 297              		.set	.LANCHOR0,. + 0
 298              		.type	cmd_str, %object
 299              		.size	cmd_str, 32
 300              	cmd_str:
 301 0000 04000000 		.word	.LC1
 302 0004 08000000 		.word	.LC2
 303 0008 0C000000 		.word	.LC3
 304 000c 10000000 		.word	.LC4
 305 0010 14000000 		.word	.LC5
 306 0014 18000000 		.word	.LC6
 307 0018 1C000000 		.word	.LC7
 308 001c 24000000 		.word	.LC8
 309              		.section	.rodata.str1.4,"aMS",%progbits,1
 310              		.align	2
 311              	.LC0:
 312 0000 0D0A00   		.ascii	"\015\012\000"
 313 0003 00       		.space	1
 314              	.LC1:
 315 0004 00       		.ascii	"\000"
 316 0005 000000   		.space	3
 317              	.LC2:
 318 0008 5300     		.ascii	"S\000"
 319 000a 0000     		.space	2
 320              	.LC3:
 321 000c 4900     		.ascii	"I\000"
 322 000e 0000     		.space	2
 323              	.LC4:
 324 0010 435600   		.ascii	"CV\000"
 325 0013 00       		.space	1
 326              	.LC5:
 327 0014 4C535600 		.ascii	"LSV\000"
 328              	.LC6:
 329 0018 434100   		.ascii	"CA\000"
 330 001b 00       		.space	1
 331              	.LC7:
 332 001c 43414C49 		.ascii	"CALI\000"
 332      00
 333 0021 000000   		.space	3
 334              	.LC8:
 335 0024 524700   		.ascii	"RG\000"
 336              		.bss
ARM GAS  C:\Users\Dias\AppData\Local\Temp\cchyDp4f.s 			page 9


 337              		.align	2
 338              		.set	.LANCHOR1,. + 0
 339              		.type	cmd, %object
 340              		.size	cmd, 4
 341              	cmd:
 342 0000 00000000 		.space	4
 343              		.type	cmd_error, %object
 344              		.size	cmd_error, 4
 345              	cmd_error:
 346 0004 00000000 		.space	4
 347              		.type	i.7318, %object
 348              		.size	i.7318, 1
 349              	i.7318:
 350 0008 00       		.space	1
 351 0009 000000   		.space	3
 352              		.type	cmd_nparam, %object
 353              		.size	cmd_nparam, 4
 354              	cmd_nparam:
 355 000c 00000000 		.space	4
 356              		.type	cmd_last, %object
 357              		.size	cmd_last, 4
 358              	cmd_last:
 359 0010 00000000 		.space	4
 360              		.text
 361              	.Letext0:
 362              		.file 2 "d:\\cypress\\psoc creator\\4.4\\psoc creator\\import\\gnu\\arm\\5.4.1\\arm-none-eabi\\inc
 363              		.file 3 "d:\\cypress\\psoc creator\\4.4\\psoc creator\\import\\gnu\\arm\\5.4.1\\arm-none-eabi\\inc
 364              		.file 4 "Generated_Source\\PSoC5/core_cm3.h"
 365              		.file 5 "d:\\cypress\\psoc creator\\4.4\\psoc creator\\import\\gnu\\arm\\5.4.1\\arm-none-eabi\\inc
 366              		.file 6 "d:\\cypress\\psoc creator\\4.4\\psoc creator\\import\\gnu\\arm\\5.4.1\\arm-none-eabi\\inc
 367              		.file 7 "Generated_Source\\PSoC5/UART.h"
 368              		.file 8 "serial.h"